; Function Attrs: nounwind uwtable
define internal fastcc void @mbim_dissect_ms_open_channel_info(ptr noundef %0, ptr noundef %1, i32 noundef %2) unnamed_addr #0 {
  %4 = alloca i32, align 4
  %5 = alloca i32, align 4
  %6 = load i32, ptr @hf_mbim_ms_uicc_status, align 4
  %7 = tail call ptr @proto_tree_add_item(ptr noundef %1, i32 noundef %6, ptr noundef %0, i32 noundef %2, i32 noundef 4, i32 noundef -2147483648) #10
  %8 = add i32 %2, 4
  %9 = load i32, ptr @hf_mbim_ms_uicc_channel, align 4
  %10 = tail call ptr @proto_tree_add_item(ptr noundef %1, i32 noundef %9, ptr noundef %0, i32 noundef %8, i32 noundef 4, i32 noundef -2147483648) #10
  %11 = add i32 %2, 8
  %12 = load i32, ptr @hf_mbim_ms_uicc_response_length, align 4
  %13 = call ptr @proto_tree_add_item_ret_uint(ptr noundef %1, i32 noundef %12, ptr noundef %0, i32 noundef %11, i32 noundef 4, i32 noundef -2147483648, ptr noundef nonnull %5) #10
  %14 = add i32 %2, 12
  %15 = load i32, ptr @hf_mbim_ms_uicc_response_offset, align 4
  %16 = call ptr @proto_tree_add_item_ret_uint(ptr noundef %1, i32 noundef %15, ptr noundef %0, i32 noundef %14, i32 noundef 4, i32 noundef -2147483648, ptr noundef nonnull %4) #10
  %17 = load i32, ptr %4, align 4
  %18 = icmp ne i32 %17, 0
  %19 = load i32, ptr %5, align 4
  %20 = icmp ne i32 %19, 0
  %or.cond = select i1 %18, i1 %20, i1 false
  br i1 %or.cond, label %21, label %25

21:                                               ; preds = %3
  %22 = load i32, ptr @hf_mbim_ms_uicc_response, align 4
  %23 = add i32 %17, %2
  %24 = call ptr @proto_tree_add_item(ptr noundef %1, i32 noundef %22, ptr noundef %0, i32 noundef %23, i32 noundef %19, i32 noundef 0) #10
  br label %25

25:                                               ; preds = %21, %3
  ret void
}